; Function Attrs: nounwind uwtable
define dso_local i64 @jsonb_out(ptr noundef readonly captures(none) %0) local_unnamed_addr #0 {
  %2 = getelementptr inbounds nuw i8, ptr %0, i64 32
  %3 = load i64, ptr %2, align 8
  %4 = inttoptr i64 %3 to ptr
  %5 = tail call ptr @pg_detoast_datum(ptr noundef %4) #11
  %6 = getelementptr inbounds nuw i8, ptr %5, i64 4
  %7 = load i32, ptr %5, align 4
  %8 = lshr i32 %7, 2
  %9 = tail call fastcc ptr @JsonbToCStringWorker(ptr noundef null, ptr noundef nonnull %6, i32 noundef %8, i1 noundef zeroext false)
  %10 = ptrtoint ptr %9 to i64
  ret i64 %10
}